(dp0
S'username'
p1
S'mamadou'
p2
sS'userpwd2'
p3
S'Djenabou1'
p4
sS'useremail'
p5
S'mamadou1fetowel@yahoo.fr'
p6
sS'firstname'
p7
S'mamadou aliou'
p8
sS'lastname'
p9
S'barry'
p10
sS'birthdate'
p11
S'2017-05-02'
p12
sS'userpwd'
p13
S'c32038c61632bf8545780d734ed4eebb334594c8d75c569e729558d77a1aefc45845624d3a3eecdcbe2e0a16bf8ee1387e16e74e6c4c9f3b9168c557868bb377'
p14
s.