(dp0
S'username'
p1
S'kjgshkjhks'
p2
sS'userpwd2'
p3
S'Djenabou27'
p4
sS'useremail'
p5
S'kgjsl@gmail.com'
p6
sS'firstname'
p7
S'kjgshkjhskj'
p8
sS'lastname'
p9
S'lgsjlkjs'
p10
sS'birthdate'
p11
S'2017-05-11'
p12
sS'userpwd'
p13
S'f1c01347e4b605a3c2319f781a790f679cd9b588695f4b500e60796f12728146f89b8b269d481e84f6ae9c0d442d69338041acda9c4fd562c7daf04d75526f23'
p14
s.