(dp0
S'username'
p1
S'abdoul'
p2
sS'userpwd2'
p3
S'Gadiri224'
p4
sS'useremail'
p5
S'abdoulgadiri224@gmail.com'
p6
sS'firstname'
p7
S'abdoul'
p8
sS'lastname'
p9
S'diallo'
p10
sS'birthdate'
p11
S'2017-05-04'
p12
sS'userpwd'
p13
S'aa35cfb3b7ed427c4ad31609a903cbbe2ea4409f897c3a5589289b35af606ba8d349e40552b2247d21e166833b9d969e46d03fb0e3787fa74c21134158788718'
p14
s.